target datalayout = "e-m:e-p270:32:32-p271:32:32-p272:64:64-i64:64-i128:128-f80:128-n8:16:32:64-S128"
target triple = "x86_64-pc-linux-gnu"

%struct.__va_list_tag = type { i32, i32, ptr, ptr }

@.str.6 = private unnamed_addr constant [22 x i8] c"unable to create '%s'\00", align 1
@.str.7 = private unnamed_addr constant [44 x i8] c"could not open '%s' for reading and writing\00", align 1
@.str.8 = private unnamed_addr constant [32 x i8] c"could not open '%s' for writing\00", align 1
@.str.9 = private unnamed_addr constant [32 x i8] c"could not open '%s' for reading\00", align 1

; Function Attrs: nounwind uwtable
define dso_local i32 @xopen(ptr noundef %0, i32 noundef %1, ...) #0 {
  %3 = alloca i32, align 4
  %4 = alloca ptr, align 8
  %5 = alloca i32, align 4
  %6 = alloca i32, align 4
  %7 = alloca [1 x %struct.__va_list_tag], align 16
  %8 = alloca i32, align 4
  %9 = alloca i32, align 4
  store ptr %0, ptr %4, align 8, !tbaa !4
  store i32 %1, ptr %5, align 4, !tbaa !11
  call void @llvm.lifetime.start.p0(i64 4, ptr %6) #13
  store i32 0, ptr %6, align 4, !tbaa !11
  call void @llvm.lifetime.start.p0(i64 24, ptr %7) #13
  %10 = getelementptr inbounds [1 x %struct.__va_list_tag], ptr %7, i64 0, i64 0
  call void @llvm.va_start.p0(ptr %10)
  %11 = load i32, ptr %5, align 4, !tbaa !11
  %12 = and i32 %11, 64
  %13 = icmp ne i32 %12, 0
  br i1 %13, label %14, label %31

14:                                               ; preds = %2
  %15 = getelementptr inbounds [1 x %struct.__va_list_tag], ptr %7, i64 0, i64 0
  %16 = getelementptr inbounds nuw %struct.__va_list_tag, ptr %15, i32 0, i32 0
  %17 = load i32, ptr %16, align 16
  %18 = icmp ule i32 %17, 40
  br i1 %18, label %19, label %24

19:                                               ; preds = %14
  %20 = getelementptr inbounds nuw %struct.__va_list_tag, ptr %15, i32 0, i32 3
  %21 = load ptr, ptr %20, align 16
  %22 = getelementptr i8, ptr %21, i32 %17
  %23 = add i32 %17, 8
  store i32 %23, ptr %16, align 16
  br label %28

24:                                               ; preds = %14
  %25 = getelementptr inbounds nuw %struct.__va_list_tag, ptr %15, i32 0, i32 2
  %26 = load ptr, ptr %25, align 8
  %27 = getelementptr i8, ptr %26, i32 8
  store ptr %27, ptr %25, align 8
  br label %28

28:                                               ; preds = %24, %19
  %29 = phi ptr [ %22, %19 ], [ %26, %24 ]
  %30 = load i32, ptr %29, align 4, !tbaa !11
  store i32 %30, ptr %6, align 4, !tbaa !11
  br label %31

31:                                               ; preds = %28, %2
  %32 = getelementptr inbounds [1 x %struct.__va_list_tag], ptr %7, i64 0, i64 0
  call void @llvm.va_end.p0(ptr %32)
  br label %33

33:                                               ; preds = %71, %31
  call void @llvm.lifetime.start.p0(i64 4, ptr %8) #13
  %34 = load ptr, ptr %4, align 8, !tbaa !4
  %35 = load i32, ptr %5, align 4, !tbaa !11
  %36 = load i32, ptr %6, align 4, !tbaa !11
  %37 = call i32 (ptr, i32, ...) @open64(ptr noundef %34, i32 noundef %35, i32 noundef %36)
  store i32 %37, ptr %8, align 4, !tbaa !11
  %38 = load i32, ptr %8, align 4, !tbaa !11
  %39 = icmp sge i32 %38, 0
  br i1 %39, label %40, label %42

40:                                               ; preds = %33
  %41 = load i32, ptr %8, align 4, !tbaa !11
  store i32 %41, ptr %3, align 4
  store i32 1, ptr %9, align 4
  br label %71

42:                                               ; preds = %33
  %43 = call ptr @__errno_location() #19
  %44 = load i32, ptr %43, align 4, !tbaa !11
  %45 = icmp eq i32 %44, 4
  br i1 %45, label %46, label %47

46:                                               ; preds = %42
  store i32 3, ptr %9, align 4
  br label %71

47:                                               ; preds = %42
  %48 = load i32, ptr %5, align 4, !tbaa !11
  %49 = and i32 %48, 192
  %50 = icmp eq i32 %49, 192
  br i1 %50, label %51, label %54

51:                                               ; preds = %47
  %52 = call ptr @_(ptr noundef @.str.6)
  %53 = load ptr, ptr %4, align 8, !tbaa !4
  call void (ptr, ...) @die_errno(ptr noundef %52, ptr noundef %53) #14
  unreachable

54:                                               ; preds = %47
  %55 = load i32, ptr %5, align 4, !tbaa !11
  %56 = and i32 %55, 2
  %57 = icmp eq i32 %56, 2
  br i1 %57, label %58, label %61

58:                                               ; preds = %54
  %59 = call ptr @_(ptr noundef @.str.7)
  %60 = load ptr, ptr %4, align 8, !tbaa !4
  call void (ptr, ...) @die_errno(ptr noundef %59, ptr noundef %60) #14
  unreachable

61:                                               ; preds = %54
  %62 = load i32, ptr %5, align 4, !tbaa !11
  %63 = and i32 %62, 1
  %64 = icmp eq i32 %63, 1
  br i1 %64, label %65, label %68

65:                                               ; preds = %61
  %66 = call ptr @_(ptr noundef @.str.8)
  %67 = load ptr, ptr %4, align 8, !tbaa !4
  call void (ptr, ...) @die_errno(ptr noundef %66, ptr noundef %67) #14
  unreachable

68:                                               ; preds = %61
  %69 = call ptr @_(ptr noundef @.str.9)
  %70 = load ptr, ptr %4, align 8, !tbaa !4
  call void (ptr, ...) @die_errno(ptr noundef %69, ptr noundef %70) #14
  unreachable

71:                                               ; preds = %46, %40
  call void @llvm.lifetime.end.p0(i64 4, ptr %8) #13
  %72 = load i32, ptr %9, align 4
  switch i32 %72, label %73 [
    i32 3, label %33
  ]

73:                                               ; preds = %71
  call void @llvm.lifetime.end.p0(i64 24, ptr %7) #13
  call void @llvm.lifetime.end.p0(i64 4, ptr %6) #13
  %74 = load i32, ptr %3, align 4
  ret i32 %74
}