; Function Attrs: nounwind uwtable
define dso_local range(i32 0, -2147483648) i32 @xopen(ptr noundef %0, i32 noundef %1, ...) local_unnamed_addr #0 {
  %3 = alloca [1 x %struct.__va_list_tag], align 16
  call void @llvm.lifetime.start.p0(i64 24, ptr nonnull %3) #20
  call void @llvm.va_start.p0(ptr nonnull %3)
  %4 = and i32 %1, 64
  %.not = icmp eq i32 %4, 0
  br i1 %.not, label %21, label %5

5:                                                ; preds = %2
  %6 = load i32, ptr %3, align 16
  %7 = icmp ult i32 %6, 41
  br i1 %7, label %8, label %14

8:                                                ; preds = %5
  %9 = getelementptr inbounds nuw i8, ptr %3, i64 16
  %10 = load ptr, ptr %9, align 16
  %11 = zext nneg i32 %6 to i64
  %12 = getelementptr i8, ptr %10, i64 %11
  %13 = add nuw nsw i32 %6, 8
  store i32 %13, ptr %3, align 16
  br label %18

14:                                               ; preds = %5
  %15 = getelementptr inbounds nuw i8, ptr %3, i64 8
  %16 = load ptr, ptr %15, align 8
  %17 = getelementptr i8, ptr %16, i64 8
  store ptr %17, ptr %15, align 8
  br label %18

18:                                               ; preds = %14, %8
  %19 = phi ptr [ %12, %8 ], [ %16, %14 ]
  %20 = load i32, ptr %19, align 4, !tbaa !9
  br label %21

21:                                               ; preds = %18, %2
  %.015 = phi i32 [ %20, %18 ], [ 0, %2 ]
  call void @llvm.va_end.p0(ptr nonnull %3)
  br label %22

22:                                               ; preds = %25, %21
  %23 = call i32 (ptr, i32, ...) @open64(ptr noundef %0, i32 noundef %1, i32 noundef %.015) #20
  %24 = icmp slt i32 %23, 0
  br i1 %24, label %25, label %44

25:                                               ; preds = %22
  %26 = tail call ptr @__errno_location() #26
  %27 = load i32, ptr %26, align 4, !tbaa !9
  %28 = icmp eq i32 %27, 4
  br i1 %28, label %22, label %29

29:                                               ; preds = %25
  %30 = and i32 %1, 192
  %31 = icmp eq i32 %30, 192
  br i1 %31, label %32, label %34

32:                                               ; preds = %29
  %33 = call fastcc ptr @_(ptr noundef nonnull @.str.6)
  call void (ptr, ...) @die_errno(ptr noundef %33, ptr noundef %0) #21
  unreachable

34:                                               ; preds = %29
  %35 = and i32 %1, 2
  %.not18 = icmp eq i32 %35, 0
  br i1 %.not18, label %38, label %36

36:                                               ; preds = %34
  %37 = call fastcc ptr @_(ptr noundef nonnull @.str.7)
  call void (ptr, ...) @die_errno(ptr noundef %37, ptr noundef %0) #21
  unreachable

38:                                               ; preds = %34
  %39 = and i32 %1, 1
  %.not19 = icmp eq i32 %39, 0
  br i1 %.not19, label %42, label %40

40:                                               ; preds = %38
  %41 = call fastcc ptr @_(ptr noundef nonnull @.str.8)
  call void (ptr, ...) @die_errno(ptr noundef %41, ptr noundef %0) #21
  unreachable

42:                                               ; preds = %38
  %43 = call fastcc ptr @_(ptr noundef nonnull @.str.9)
  call void (ptr, ...) @die_errno(ptr noundef %43, ptr noundef %0) #21
  unreachable

44:                                               ; preds = %22
  call void @llvm.lifetime.end.p0(i64 24, ptr nonnull %3) #20
  ret i32 %23
}